target datalayout = "e-m:e-p270:32:32-p271:32:32-p272:64:64-i64:64-i128:128-f80:128-n8:16:32:64-S128"
target triple = "x86_64-pc-linux-gnu"

%"class.std::__1::shared_ptr.24" = type { ptr, ptr }
%class.anon.309 = type { ptr, %"class.std::__1::shared_ptr.24" }
%"class.std::__1::__shared_count" = type { ptr, i64 }
%"class.std::__1::__function::__base" = type { ptr }
%"class.std::__1::allocator.1649" = type { i8 }
%"class.std::__1::__function::__func.1652" = type { %"class.std::__1::__function::__base", %"class.std::__1::__function::__alloc_func.1653" }
%"class.std::__1::__function::__alloc_func.1653" = type { %"class.std::__1::__compressed_pair.1654" }
%"class.std::__1::__compressed_pair.1654" = type { %"struct.std::__1::__compressed_pair_elem.1655" }
%"struct.std::__1::__compressed_pair_elem.1655" = type { %class.anon.309 }

; Function Attrs: mustprogress nounwind uwtable
define linkonce_odr hidden noundef i64 @_ZNSt3__134__libcpp_atomic_refcount_decrementB8ne190000IlEET_RS1_(ptr noundef nonnull align 8 dereferenceable(8) %0) #1 comdat {
  %2 = alloca ptr, align 8
  %3 = alloca i64, align 8
  %4 = alloca i64, align 8
  store ptr %0, ptr %2, align 8
  %5 = load ptr, ptr %2, align 8
  store i64 -1, ptr %3, align 8
  %6 = load i64, ptr %3, align 8
  %7 = atomicrmw add ptr %5, i64 %6 acq_rel, align 8
  %8 = add i64 %7, %6
  store i64 %8, ptr %4, align 8
  %9 = load i64, ptr %4, align 8
  ret i64 %9
}

; Function Attrs: mustprogress nounwind uwtable
define linkonce_odr hidden noundef zeroext i1 @_ZNSt3__114__shared_count16__release_sharedB8ne190000Ev(ptr noundef nonnull align 8 dereferenceable(16) %0) #1 comdat align 2 {
  %2 = alloca i1, align 1
  %3 = alloca ptr, align 8
  store ptr %0, ptr %3, align 8
  %4 = load ptr, ptr %3, align 8
  %5 = getelementptr inbounds %"class.std::__1::__shared_count", ptr %4, i32 0, i32 1
  %6 = call noundef i64 @_ZNSt3__134__libcpp_atomic_refcount_decrementB8ne190000IlEET_RS1_(ptr noundef nonnull align 8 dereferenceable(8) %5) #11
  %7 = icmp eq i64 %6, -1
  br i1 %7, label %8, label %12

8:                                                ; preds = %1
  %9 = load ptr, ptr %4, align 8
  %10 = getelementptr inbounds ptr, ptr %9, i64 2
  %11 = load ptr, ptr %10, align 8
  call void %11(ptr noundef nonnull align 8 dereferenceable(16) %4) #11
  store i1 true, ptr %2, align 1
  br label %13

12:                                               ; preds = %1
  store i1 false, ptr %2, align 1
  br label %13

13:                                               ; preds = %12, %8
  %14 = load i1, ptr %2, align 1
  ret i1 %14
}

; Function Attrs: mustprogress nounwind uwtable
define linkonce_odr hidden void @_ZNSt3__119__shared_weak_count16__release_sharedB8ne190000Ev(ptr noundef nonnull align 8 dereferenceable(24) %0) #1 comdat align 2 {
  %2 = alloca ptr, align 8
  store ptr %0, ptr %2, align 8
  %3 = load ptr, ptr %2, align 8
  %4 = call noundef zeroext i1 @_ZNSt3__114__shared_count16__release_sharedB8ne190000Ev(ptr noundef nonnull align 8 dereferenceable(16) %3) #11
  br i1 %4, label %5, label %6

5:                                                ; preds = %1
  call void @_ZNSt3__119__shared_weak_count14__release_weakEv(ptr noundef nonnull align 8 dereferenceable(24) %3) #11
  br label %6

6:                                                ; preds = %5, %1
  ret void
}

; Function Attrs: mustprogress nounwind uwtable
define linkonce_odr hidden void @_ZNSt3__110shared_ptrIN3tev5ImageEED2B8ne190000Ev(ptr noundef nonnull align 8 dereferenceable(16) %0) unnamed_addr #1 comdat align 2 {
  %2 = alloca ptr, align 8
  store ptr %0, ptr %2, align 8
  %3 = load ptr, ptr %2, align 8
  %4 = getelementptr inbounds %"class.std::__1::shared_ptr.24", ptr %3, i32 0, i32 1
  %5 = load ptr, ptr %4, align 8
  %6 = icmp ne ptr %5, null
  br i1 %6, label %7, label %10

7:                                                ; preds = %1
  %8 = getelementptr inbounds %"class.std::__1::shared_ptr.24", ptr %3, i32 0, i32 1
  %9 = load ptr, ptr %8, align 8
  call void @_ZNSt3__119__shared_weak_count16__release_sharedB8ne190000Ev(ptr noundef nonnull align 8 dereferenceable(24) %9) #11
  br label %10

10:                                               ; preds = %7, %1
  ret void
}

; Function Attrs: mustprogress nounwind uwtable
define linkonce_odr hidden void @_ZNSt3__124__libcpp_operator_deleteB8ne190000IJPvEEEvDpT_(ptr noundef %0) #1 comdat {
  %2 = alloca ptr, align 8
  store ptr %0, ptr %2, align 8
  %3 = load ptr, ptr %2, align 8
  call void @_ZdlPv(ptr noundef %3) #23
  ret void
}

; Function Attrs: mustprogress nounwind uwtable
define linkonce_odr hidden void @_ZNSt3__124__libcpp_operator_deleteB8ne190000IJPvSt11align_val_tEEEvDpT_(ptr noundef %0, i64 noundef %1) #1 comdat {
  %3 = alloca ptr, align 8
  %4 = alloca i64, align 8
  store ptr %0, ptr %3, align 8
  store i64 %1, ptr %4, align 8
  %5 = load ptr, ptr %3, align 8
  %6 = load i64, ptr %4, align 8
  call void @_ZdlPvSt11align_val_t(ptr noundef %5, i64 noundef %6) #23
  ret void
}

; Function Attrs: mustprogress nounwind uwtable
define internal void @"_ZZN3tev11ImageViewer11insertImageENSt3__110shared_ptrINS_5ImageEEEmbEN3$_1D2Ev"(ptr noundef nonnull align 8 dereferenceable(24) %0) unnamed_addr #1 align 2 {
  %2 = alloca ptr, align 8
  store ptr %0, ptr %2, align 8
  %3 = load ptr, ptr %2, align 8
  %4 = getelementptr inbounds %class.anon.309, ptr %3, i32 0, i32 1
  call void @_ZNSt3__110shared_ptrIN3tev5ImageEED2B8ne190000Ev(ptr noundef nonnull align 8 dereferenceable(16) %4) #11
  ret void
}

; Function Attrs: mustprogress uwtable
define linkonce_odr hidden void @_ZNSt3__127__do_deallocate_handle_sizeB8ne190000IJEEEvPvmDpT_(ptr noundef %0, i64 noundef %1) #4 comdat {
  %3 = alloca ptr, align 8
  %4 = alloca i64, align 8
  store ptr %0, ptr %3, align 8
  store i64 %1, ptr %4, align 8
  %5 = load ptr, ptr %3, align 8
  call void @_ZNSt3__124__libcpp_operator_deleteB8ne190000IJPvEEEvDpT_(ptr noundef %5)
  ret void
}

; Function Attrs: mustprogress uwtable
define linkonce_odr hidden void @_ZNSt3__127__do_deallocate_handle_sizeB8ne190000IJSt11align_val_tEEEvPvmDpT_(ptr noundef %0, i64 noundef %1, i64 noundef %2) #4 comdat {
  %4 = alloca ptr, align 8
  %5 = alloca i64, align 8
  %6 = alloca i64, align 8
  store ptr %0, ptr %4, align 8
  store i64 %1, ptr %5, align 8
  store i64 %2, ptr %6, align 8
  %7 = load ptr, ptr %4, align 8
  %8 = load i64, ptr %6, align 8
  call void @_ZNSt3__124__libcpp_operator_deleteB8ne190000IJPvSt11align_val_tEEEvDpT_(ptr noundef %7, i64 noundef %8)
  ret void
}

; Function Attrs: mustprogress nounwind uwtable
define linkonce_odr hidden noundef zeroext i1 @_ZNSt3__124__is_overaligned_for_newB8ne190000Em(i64 noundef %0) #1 comdat {
  %2 = alloca i64, align 8
  store i64 %0, ptr %2, align 8
  %3 = load i64, ptr %2, align 8
  %4 = icmp ugt i64 %3, 16
  ret i1 %4
}

; Function Attrs: mustprogress nounwind uwtable
define internal void @"_ZNSt3__122__compressed_pair_elemIZN3tev11ImageViewer11insertImageENS_10shared_ptrINS1_5ImageEEEmbE3$_1Li0ELb0EED2Ev"(ptr noundef nonnull align 8 dereferenceable(24) %0) unnamed_addr #1 align 2 {
  %2 = alloca ptr, align 8
  store ptr %0, ptr %2, align 8
  %3 = load ptr, ptr %2, align 8
  %4 = getelementptr inbounds %"struct.std::__1::__compressed_pair_elem.1655", ptr %3, i32 0, i32 0
  call void @"_ZZN3tev11ImageViewer11insertImageENSt3__110shared_ptrINS_5ImageEEEmbEN3$_1D2Ev"(ptr noundef nonnull align 8 dereferenceable(24) %4) #11
  ret void
}

; Function Attrs: mustprogress nounwind uwtable
define internal noundef nonnull align 1 dereferenceable(1) ptr @"_ZNKSt3__122__compressed_pair_elemINS_9allocatorIZN3tev11ImageViewer11insertImageENS_10shared_ptrINS2_5ImageEEEmbE3$_1EELi1ELb1EE5__getB8ne190000Ev"(ptr noundef nonnull align 1 dereferenceable(1) %0) #1 align 2 {
  %2 = alloca ptr, align 8
  store ptr %0, ptr %2, align 8
  %3 = load ptr, ptr %2, align 8
  ret ptr %3
}

; Function Attrs: noreturn nounwind uwtable
define linkonce_odr hidden void @__clang_call_terminate(ptr noundef %0) #13 comdat {
  %2 = call ptr @__cxa_begin_catch(ptr %0) #11
  call void @_ZSt9terminatev() #25
  unreachable
}

; Function Attrs: mustprogress uwtable
define linkonce_odr hidden void @_ZNSt3__119__libcpp_deallocateB8ne190000EPvmm(ptr noundef %0, i64 noundef %1, i64 noundef %2) #4 comdat {
  %4 = alloca ptr, align 8
  %5 = alloca i64, align 8
  %6 = alloca i64, align 8
  %7 = alloca i64, align 8
  store ptr %0, ptr %4, align 8
  store i64 %1, ptr %5, align 8
  store i64 %2, ptr %6, align 8
  %8 = load i64, ptr %6, align 8
  %9 = call noundef zeroext i1 @_ZNSt3__124__is_overaligned_for_newB8ne190000Em(i64 noundef %8) #11
  br i1 %9, label %10, label %15

10:                                               ; preds = %3
  %11 = load i64, ptr %6, align 8
  store i64 %11, ptr %7, align 8
  %12 = load ptr, ptr %4, align 8
  %13 = load i64, ptr %5, align 8
  %14 = load i64, ptr %7, align 8
  call void @_ZNSt3__127__do_deallocate_handle_sizeB8ne190000IJSt11align_val_tEEEvPvmDpT_(ptr noundef %12, i64 noundef %13, i64 noundef %14)
  br label %18

15:                                               ; preds = %3
  %16 = load ptr, ptr %4, align 8
  %17 = load i64, ptr %5, align 8
  call void @_ZNSt3__127__do_deallocate_handle_sizeB8ne190000IJEEEvPvmDpT_(ptr noundef %16, i64 noundef %17)
  br label %18

18:                                               ; preds = %15, %10
  ret void
}

; Function Attrs: mustprogress nounwind uwtable
define internal void @"_ZNSt3__117__compressed_pairIZN3tev11ImageViewer11insertImageENS_10shared_ptrINS1_5ImageEEEmbE3$_1NS_9allocatorIS6_EEED2Ev"(ptr noundef nonnull align 8 dereferenceable(24) %0) unnamed_addr #1 align 2 {
  %2 = alloca ptr, align 8
  store ptr %0, ptr %2, align 8
  %3 = load ptr, ptr %2, align 8
  call void @"_ZNSt3__122__compressed_pair_elemIZN3tev11ImageViewer11insertImageENS_10shared_ptrINS1_5ImageEEEmbE3$_1Li0ELb0EED2Ev"(ptr noundef nonnull align 8 dereferenceable(24) %3) #11
  ret void
}

; Function Attrs: mustprogress nounwind uwtable
define internal void @"_ZNSt3__116__non_trivial_ifILb1ENS_9allocatorINS_10__function6__funcIZN3tev11ImageViewer11insertImageENS_10shared_ptrINS4_5ImageEEEmbE3$_1NS1_IS9_EEFvbEEEEEEC2B8ne190000Ev"(ptr noundef nonnull align 1 dereferenceable(1) %0) unnamed_addr #1 align 2 {
  %2 = alloca ptr, align 8
  store ptr %0, ptr %2, align 8
  ret void
}

; Function Attrs: mustprogress nounwind uwtable
define internal noundef nonnull align 1 dereferenceable(1) ptr @"_ZNKSt3__117__compressed_pairIZN3tev11ImageViewer11insertImageENS_10shared_ptrINS1_5ImageEEEmbE3$_1NS_9allocatorIS6_EEE6secondB8ne190000Ev"(ptr noundef nonnull align 8 dereferenceable(24) %0) #1 align 2 {
  %2 = alloca ptr, align 8
  store ptr %0, ptr %2, align 8
  %3 = load ptr, ptr %2, align 8
  %4 = call noundef nonnull align 1 dereferenceable(1) ptr @"_ZNKSt3__122__compressed_pair_elemINS_9allocatorIZN3tev11ImageViewer11insertImageENS_10shared_ptrINS2_5ImageEEEmbE3$_1EELi1ELb1EE5__getB8ne190000Ev"(ptr noundef nonnull align 1 dereferenceable(1) %3) #11
  ret ptr %4
}

; Function Attrs: mustprogress nounwind uwtable
define internal void @"_ZNSt3__19allocatorINS_10__function6__funcIZN3tev11ImageViewer11insertImageENS_10shared_ptrINS3_5ImageEEEmbE3$_1NS0_IS8_EEFvbEEEE10deallocateB8ne190000EPSB_m"(ptr noundef nonnull align 1 dereferenceable(1) %0, ptr noundef %1, i64 noundef %2) #1 align 2 personality ptr @__gxx_personality_v0 {
  %4 = alloca ptr, align 8
  %5 = alloca ptr, align 8
  %6 = alloca i64, align 8
  store ptr %0, ptr %4, align 8
  store ptr %1, ptr %5, align 8
  store i64 %2, ptr %6, align 8
  %7 = load ptr, ptr %5, align 8
  %8 = load i64, ptr %6, align 8
  %9 = mul i64 %8, 32
  invoke void @_ZNSt3__119__libcpp_deallocateB8ne190000EPvmm(ptr noundef %7, i64 noundef %9, i64 noundef 8)
          to label %10 unwind label %11

10:                                               ; preds = %3
  ret void

11:                                               ; preds = %3
  %12 = landingpad { ptr, i32 }
          catch ptr null
  %13 = extractvalue { ptr, i32 } %12, 0
  call void @__clang_call_terminate(ptr %13) #25
  unreachable
}

; Function Attrs: mustprogress nounwind uwtable
define internal void @"_ZNSt3__110__function12__alloc_funcIZN3tev11ImageViewer11insertImageENS_10shared_ptrINS2_5ImageEEEmbE3$_1NS_9allocatorIS7_EEFvbEE7destroyB8ne190000Ev"(ptr noundef nonnull align 8 dereferenceable(24) %0) #1 align 2 {
  %2 = alloca ptr, align 8
  store ptr %0, ptr %2, align 8
  %3 = load ptr, ptr %2, align 8
  %4 = getelementptr inbounds %"class.std::__1::__function::__alloc_func.1653", ptr %3, i32 0, i32 0
  call void @"_ZNSt3__117__compressed_pairIZN3tev11ImageViewer11insertImageENS_10shared_ptrINS1_5ImageEEEmbE3$_1NS_9allocatorIS6_EEED2Ev"(ptr noundef nonnull align 8 dereferenceable(24) %4) #11
  ret void
}

; Function Attrs: mustprogress nounwind uwtable
define internal void @"_ZNSt3__19allocatorINS_10__function6__funcIZN3tev11ImageViewer11insertImageENS_10shared_ptrINS3_5ImageEEEmbE3$_1NS0_IS8_EEFvbEEEEC2B8ne190000IS8_EERKNS0_IT_EE"(ptr noundef nonnull align 1 dereferenceable(1) %0, ptr noundef nonnull align 1 dereferenceable(1) %1) unnamed_addr #1 align 2 {
  %3 = alloca ptr, align 8
  %4 = alloca ptr, align 8
  store ptr %0, ptr %3, align 8
  store ptr %1, ptr %4, align 8
  %5 = load ptr, ptr %3, align 8
  call void @"_ZNSt3__116__non_trivial_ifILb1ENS_9allocatorINS_10__function6__funcIZN3tev11ImageViewer11insertImageENS_10shared_ptrINS4_5ImageEEEmbE3$_1NS1_IS9_EEFvbEEEEEEC2B8ne190000Ev"(ptr noundef nonnull align 1 dereferenceable(1) %5) #11
  ret void
}

; Function Attrs: mustprogress nounwind uwtable
define internal noundef nonnull align 1 dereferenceable(1) ptr @"_ZNKSt3__110__function12__alloc_funcIZN3tev11ImageViewer11insertImageENS_10shared_ptrINS2_5ImageEEEmbE3$_1NS_9allocatorIS7_EEFvbEE15__get_allocatorB8ne190000Ev"(ptr noundef nonnull align 8 dereferenceable(24) %0) #1 align 2 {
  %2 = alloca ptr, align 8
  store ptr %0, ptr %2, align 8
  %3 = load ptr, ptr %2, align 8
  %4 = getelementptr inbounds %"class.std::__1::__function::__alloc_func.1653", ptr %3, i32 0, i32 0
  %5 = call noundef nonnull align 1 dereferenceable(1) ptr @"_ZNKSt3__117__compressed_pairIZN3tev11ImageViewer11insertImageENS_10shared_ptrINS1_5ImageEEEmbE3$_1NS_9allocatorIS6_EEE6secondB8ne190000Ev"(ptr noundef nonnull align 8 dereferenceable(24) %4) #11
  ret ptr %5
}

; Function Attrs: mustprogress nounwind uwtable
define internal void @"_ZNSt3__110__function6__funcIZN3tev11ImageViewer11insertImageENS_10shared_ptrINS2_5ImageEEEmbE3$_1NS_9allocatorIS7_EEFvbEE18destroy_deallocateEv"(ptr noundef nonnull align 8 dereferenceable(32) %0) unnamed_addr #1 align 2 {
  %2 = alloca ptr, align 8
  %3 = alloca %"class.std::__1::allocator.1649", align 1
  store ptr %0, ptr %2, align 8
  %4 = load ptr, ptr %2, align 8
  %5 = getelementptr inbounds %"class.std::__1::__function::__func.1652", ptr %4, i32 0, i32 1
  %6 = call noundef nonnull align 1 dereferenceable(1) ptr @"_ZNKSt3__110__function12__alloc_funcIZN3tev11ImageViewer11insertImageENS_10shared_ptrINS2_5ImageEEEmbE3$_1NS_9allocatorIS7_EEFvbEE15__get_allocatorB8ne190000Ev"(ptr noundef nonnull align 8 dereferenceable(24) %5)
  call void @"_ZNSt3__19allocatorINS_10__function6__funcIZN3tev11ImageViewer11insertImageENS_10shared_ptrINS3_5ImageEEEmbE3$_1NS0_IS8_EEFvbEEEEC2B8ne190000IS8_EERKNS0_IT_EE"(ptr noundef nonnull align 1 dereferenceable(1) %3, ptr noundef nonnull align 1 dereferenceable(1) %6) #11
  %7 = getelementptr inbounds %"class.std::__1::__function::__func.1652", ptr %4, i32 0, i32 1
  call void @"_ZNSt3__110__function12__alloc_funcIZN3tev11ImageViewer11insertImageENS_10shared_ptrINS2_5ImageEEEmbE3$_1NS_9allocatorIS7_EEFvbEE7destroyB8ne190000Ev"(ptr noundef nonnull align 8 dereferenceable(24) %7) #11
  call void @"_ZNSt3__19allocatorINS_10__function6__funcIZN3tev11ImageViewer11insertImageENS_10shared_ptrINS3_5ImageEEEmbE3$_1NS0_IS8_EEFvbEEEE10deallocateB8ne190000EPSB_m"(ptr noundef nonnull align 1 dereferenceable(1) %3, ptr noundef %4, i64 noundef 1) #11
  ret void
}